; ModuleID = 'bench/linux/original/initializers.ll'
source_filename = "bench/linux/original/initializers.ll"
target datalayout = "e-m:e-p270:32:32-p271:32:32-p272:64:64-i64:64-i128:128-f80:128-n8:16:32:64-S128"
target triple = "x86_64-unknown-linux-gnu"

@usb_stor_ucr61s2b_init.init_string = internal unnamed_addr constant [13 x i8] c"\EC\0A\06\00$PCCHIPS\00", align 1

; Function Attrs: fn_ret_thunk_extern nounwind null_pointer_is_valid
define dso_local noundef i32 @usb_stor_euscsi_init(ptr noundef %0) local_unnamed_addr #0 align 16 {
  %2 = getelementptr inbounds i8, ptr %0, i64 80
  %3 = load i32, ptr %2, align 8
  %4 = tail call i32 @usb_stor_control_msg(ptr noundef %0, i32 noundef %3, i8 noundef zeroext 12, i8 noundef zeroext 65, i16 noundef zeroext 1, i16 noundef zeroext 0, ptr noundef null, i16 noundef zeroext 0, i32 noundef 5000) #5
  ret i32 0
}

; Function Attrs: mustprogress nocallback nofree nosync nounwind willreturn memory(argmem: readwrite)
declare void @llvm.lifetime.start.p0(i64 immarg, ptr nocapture) #1

; Function Attrs: null_pointer_is_valid
declare dso_local i32 @usb_stor_control_msg(ptr noundef, i32 noundef, i8 noundef zeroext, i8 noundef zeroext, i16 noundef zeroext, i16 noundef zeroext, ptr noundef, i16 noundef zeroext, i32 noundef) local_unnamed_addr #2

; Function Attrs: mustprogress nocallback nofree nosync nounwind willreturn memory(argmem: readwrite)
declare void @llvm.lifetime.end.p0(i64 immarg, ptr nocapture) #1

; Function Attrs: fn_ret_thunk_extern nounwind null_pointer_is_valid
define dso_local i32 @usb_stor_ucr61s2b_init(ptr noundef %0) local_unnamed_addr #0 align 16 {
  %2 = alloca i32, align 4
  %3 = getelementptr inbounds i8, ptr %0, i64 304
  %4 = load ptr, ptr %3, align 8
  call void @llvm.lifetime.start.p0(i64 4, ptr nonnull %2) #5
  store i32 0, ptr %2, align 4, !annotation !5
  store i32 1128420181, ptr %4, align 4
  %5 = getelementptr inbounds i8, ptr %4, i64 4
  %6 = getelementptr inbounds i8, ptr %4, i64 14
  tail call void @llvm.memset.p0.i64(ptr noundef align 4 dereferenceable(10) %5, i8 0, i64 10, i1 false)
  store i8 12, ptr %6, align 2
  %7 = getelementptr inbounds i8, ptr %4, i64 15
  %8 = getelementptr i8, ptr %4, i64 27
  store i32 0, ptr %8, align 1
  tail call void @llvm.memcpy.p0.p0.i64(ptr noundef align 1 dereferenceable(12) %7, ptr noundef nonnull align 1 dereferenceable(12) @usb_stor_ucr61s2b_init.init_string, i64 12, i1 false)
  %9 = getelementptr inbounds i8, ptr %0, i64 72
  %10 = load i32, ptr %9, align 8
  %11 = call i32 @usb_stor_bulk_transfer_buf(ptr noundef %0, i32 noundef %10, ptr noundef %4, i32 noundef 31, ptr noundef nonnull %2) #5
  %12 = icmp eq i32 %11, 0
  br i1 %12, label %13, label %19

13:                                               ; preds = %1
  %14 = getelementptr inbounds i8, ptr %0, i64 76
  %15 = load i32, ptr %14, align 4
  %16 = call i32 @usb_stor_bulk_transfer_buf(ptr noundef %0, i32 noundef %15, ptr noundef %4, i32 noundef 13, ptr noundef nonnull %2) #5
  %17 = icmp eq i32 %16, 0
  %18 = select i1 %17, i32 0, i32 -5
  br label %19

19:                                               ; preds = %13, %1
  %20 = phi i32 [ -5, %1 ], [ %18, %13 ]
  call void @llvm.lifetime.end.p0(i64 4, ptr nonnull %2) #5
  ret i32 %20
}

; Function Attrs: mustprogress nocallback nofree nounwind willreturn memory(argmem: write)
declare void @llvm.memset.p0.i64(ptr nocapture writeonly, i8, i64, i1 immarg) #3

; Function Attrs: mustprogress nocallback nofree nounwind willreturn memory(argmem: readwrite)
declare void @llvm.memcpy.p0.p0.i64(ptr noalias nocapture writeonly, ptr noalias nocapture readonly, i64, i1 immarg) #4

; Function Attrs: null_pointer_is_valid
declare dso_local i32 @usb_stor_bulk_transfer_buf(ptr noundef, i32 noundef, ptr noundef, i32 noundef, ptr noundef) local_unnamed_addr #2

; Function Attrs: fn_ret_thunk_extern nounwind null_pointer_is_valid
define dso_local noundef i32 @usb_stor_huawei_e220_init(ptr noundef %0) local_unnamed_addr #0 align 16 {
  %2 = getelementptr inbounds i8, ptr %0, i64 80
  %3 = load i32, ptr %2, align 8
  %4 = tail call i32 @usb_stor_control_msg(ptr noundef %0, i32 noundef %3, i8 noundef zeroext 3, i8 noundef zeroext 0, i16 noundef zeroext 1, i16 noundef zeroext 0, ptr noundef null, i16 noundef zeroext 0, i32 noundef 1000) #5
  ret i32 0
}


!llvm.module.flags = !{!0, !1, !2, !3, !4}

!0 = !{i32 1, !"wchar_size", i32 2}
!1 = !{i32 8, !"cf-protection-branch", i32 1}
!2 = !{i32 4, !"function_return_thunk_extern", i32 1}
!3 = !{i32 4, !"indirect_branch_cs_prefix", i32 1}
!4 = !{i32 4, !"SkipRaxSetup", i32 1}
!5 = !{!"auto-init"}
